(lp0
S'OV7'
p1
aS'HCC1419'
p2
aS'A2780'
p3
aS'HCC-1833'
p4
aS'SNU-308'
p5
aS'SNU-C2A'
p6
aS'NCI-H441'
p7
aS'NCI-H1793'
p8
aS'COR-L47'
p9
aS'HCC-15'
p10
aS'TE-5'
p11
aS'SW 1783'
p12
aS'RH-30'
p13
aS'IGR-37'
p14
aS'AGS'
p15
aS'HEC-108'
p16
aS'HCC2218'
p17
aS'Panc 05.04'
p18
aS'RCM-1'
p19
aS'Hs 675.T'
p20
aS'HuTu 80'
p21
aS'OCI-AML3'
p22
aS'ALL-SIL'
p23
aS'NCI-H889'
p24
aS'SW 1990'
p25
aS'NCI-H929'
p26
aS'OCUM-1'
p27
aS'DV-90'
p28
aS'SNU-466'
p29
aS'BT-549'
p30
aS'HT-1197'
p31
aS'MDA-MB-435S'
p32
aS'NCI-H1792'
p33
aS'NCI-H1385'
p34
aS'NCI-H1581'
p35
aS'SUP-M2'
p36
aS'DMS 454'
p37
aS'REC-1'
p38
aS'SNU-410'
p39
aS'SNU-398'
p40
aS'Hs 822.T'
p41
aS'KYSE-180'
p42
aS'COLO 829'
p43
aS'KMS-20'
p44
aS'CAL-29'
p45
aS'JHH-6'
p46
aS'JHH-7'
p47
aS'JHH-1'
p48
aS'KMS-26'
p49
aS'COLO 792'
p50
aS'VCaP'
p51
aS'HCT 116'
p52
aS'T84'
p53
aS'NCI-N87'
p54
aS'EPLC-272H'
p55
aS'LU99'
p56
aS'BEN'
p57
aS'Panc 02.03'
p58
aS'AU565'
p59
aS'KP-N-YN'
p60
aS'GB-1'
p61
aS'JHOM-1'
p62
aS'Capan-1'
p63
aS'Reh'
p64
aS'Capan-2'
p65
aS'KMS-28BM'
p66
aS'JURL-MK1'
p67
aS'NCI-H2122'
p68
aS'KYSE-150'
p69
aS'OCI-LY3'
p70
aS'HOP-92'
p71
aS'COV434'
p72
aS'KP4'
p73
aS'NCI-H1666'
p74
aS'TCC-PAN2'
p75
aS'CL-11'
p76
aS'SNU-520'
p77
aS'HT-144'
p78
aS'SNU-489'
p79
aS'OC 314'
p80
aS'NOMO-1'
p81
aS'SW-1710'
p82
aS'Toledo'
p83
aS'U-2 OS'
p84
aS'OUMS-23'
p85
aS'SNU-1196'
p86
aS'NCI-H1963'
p87
aS'RI-1'
p88
aS'MES-SA'
p89
aS'HCC1187'
p90
aS'WM983B'
p91
aS'CML-T1'
p92
aS'SNU-1041'
p93
aS'NCI-H146'
p94
aS'NU-DHL-1'
p95
aS'COLO 684'
p96
aS'NCI-H854'
p97
aS'TE-15'
p98
aS'P3HR-1'
p99
aS'TE-11'
p100
aS'GI-1'
p101
aS'NCI-H1648'
p102
aS'JHOS-4'
p103
aS'NCI-H1568'
p104
aS'Pfeiffer'
p105
aS'SNU-738'
p106
aS'JHOS-2'
p107
aS'Hs 888.T'
p108
aS'KATO III'
p109
aS'NCI-H1563'
p110
aS'SR-786'
p111
aS'LOU-NH91'
p112
aS'CA46'
p113
aS'HLF'
p114
aS'UACC-893'
p115
aS'59M'
p116
aS'CL-14'
p117
aS'CAL 27'
p118
aS'PANC-1'
p119
aS'LNCaP clone FGC'
p120
aS'HCC-366'
p121
aS'NCI-H292'
p122
aS'NCI-H727'
p123
aS'SNU-1214'
p124
aS'RMUG-S'
p125
aS'HCC-2279'
p126
aS'A172'
p127
aS'NCI-H647'
p128
aS'MV-4-11'
p129
aS'HCC-56'
p130
aS'U-251 MG'
p131
aS'PK-59'
p132
aS'Hs 611.T'
p133
aS'NCI-H2081'
p134
aS'CHP-212'
p135
aS'NCI-H2087'
p136
aS'NCI-H2085'
p137
aS'SNG-M'
p138
aS'Sq-1'
p139
aS'MDA-MB-231'
p140
aS'253J-BV'
p141
aS'TUHR10TKB'
p142
aS'MFE-319'
p143
aS'RCC10RGB'
p144
aS'FTC-238'
p145
aS'LCLC-103H'
p146
aS'RS-5'
p147
aS'SNU-8'
p148
aS'OV56'
p149
aS'HEC-265'
p150
aS'8505C'
p151
aS'SK-N-AS'
p152
aS'Saos-2'
p153
aS'MCAS'
p154
aS'HEC-251'
p155
aS'T3M-4'
p156
aS'GOS-3'
p157
aS'NCI-H1105'
p158
aS'WSU-DLCL2'
p159
aS'SCC-15'
p160
aS'NIH:OVCAR-3'
p161
aS'HCC1954'
p162
aS'MEL-JUSO'
p163
aS'HCC-1195'
p164
aS'EC-GI-10'
p165
aS'SUIT-2'
p166
aS'DMS 79'
p167
aS'KMBC-2'
p168
aS'HEC-151'
p169
aS'GDM-1'
p170
aS'CAL-78'
p171
aS'JMSU-1'
p172
aS'COR-L88'
p173
aS'HCC1599'
p174
aS'HMC-1-8'
p175
aS'TE 125.T'
p176
aS'BT-474'
p177
aS'GCIY'
p178
aS'SF539'
p179
aS'NCI-H2030'
p180
aS'253J'
p181
aS'G-361'
p182
aS'SNU-685'
p183
aS'8305C'
p184
aS'SNU-5'
p185
aS'Hep 3B2.1-7'
p186
aS'MKN74'
p187
aS'HPAC'
p188
aS'L-540'
p189
aS'PEER'
p190
aS'M-07e'
p191
aS'G-401'
p192
aS'G-402'
p193
aS'SNU-175'
p194
aS'8-MG-BA'
p195
aS'786-O'
p196
aS'IMR-32'
p197
aS'IST-MES2'
p198
aS'IST-MES1'
p199
aS'Kasumi-6'
p200
aS'S-117'
p201
aS'AMO-1'
p202
aS'DU4475'
p203
aS'SK-UT-1'
p204
aS'MIA PaCa-2'
p205
aS'MC116'
p206
aS'TO 175.T'
p207
aS'CL-40'
p208
aS'KARPAS-422'
p209
aS'Panc 08.13'
p210
aS'AM-38'
p211
aS'ST486'
p212
aS'Raji'
p213
aS'SIMA'
p214
aS'NCI-H1944'
p215
aS'KALS-1'
p216
aS'MDA PCa 2b'
p217
aS'SK-N-DZ'
p218
aS'NCI-H2452'
p219
aS'NCI-H2106'
p220
aS'YD-8'
p221
aS'SIG-M5'
p222
aS'MOLT-16'
p223
aS'BHY'
p224
aS'BHT-101'
p225
aS'123'
p226
aS'HGC-27'
p227
aS'NCI-H1734'
p228
aS'SK-ES-1'
p229
aS'EBC-1'
p230
aS'T-47D'
p231
aS'NCI-H520'
p232
aS'Daoy'
p233
aS'NCI-H2286'
p234
aS'NCI-H358'
p235
aS'HCC-95'
p236
aS'MCF7'
p237
aS'SNU-886'
p238
aS'SK-BR-3'
p239
aS'HCC1395'
p240
aS'NCI-H211'
p241
aS'KELLY'
p242
aS'PA-TU-8988T'
p243
aS'COR-L279'
p244
aS'C32'
p245
aS'SNU-16'
p246
aS'JHOM-2B'
p247
aS'Hs 698.T'
p248
aS'MFE-296'
p249
aS'U-BLC1'
p250
aS'SW837'
p251
aS'TOV-112D'
p252
aS'OVISE'
p253
aS'GSS'
p254
aS'RPMI-8402'
p255
aS'K-562'
p256
aS'NCI-H510'
p257
aS'NCI-H2196'
p258
aS'KMRC-20'
p259
aS'HCC1143'
p260
aS'RERF-LC-AI'
p261
aS'TUHR14TKB'
p262
aS'JK-1'
p263
aS'SW1417'
p264
aS'COLO-680N'
p265
aS'DOHH-2'
p266
aS'TE 617.T'
p267
aS'PF-382'
p268
aS'UM-UC-3'
p269
aS'LoVo'
p270
aS'UM-UC-1'
p271
aS'SK-MEL-28'
p272
aS'MUTZ-5'
p273
aS'SK-MEL-24'
p274
aS'MUTZ-3'
p275
aS'SH-10-TC'
p276
aS'RERF-LC-Sq1'
p277
aS'NCI-H2073'
p278
aS'MFE-280'
p279
aS'EFO-27'
p280
aS'SW480'
p281
aS'NCC-StC-K140'
p282
aS'L-1236'
p283
aS'JHH-5'
p284
aS'L-428'
p285
aS'SCC-9'
p286
aS'JHUEM-2'
p287
aS'UACC-812'
p288
aS'HT-1376'
p289
aS'HT55'
p290
aS'SCC-4'
p291
aS'KMS-34'
p292
aS'JHUEM-7'
p293
aS'SCC-25'
p294
aS'MONO-MAC-6'
p295
aS'KMS-27'
p296
aS'CFPAC-1'
p297
aS'MONO-MAC-1'
p298
aS'RMG-I'
p299
aS'NU-DUL-1'
p300
aS'LAMA-84'
p301
aS'JL-1'
p302
aS'SJSA-1'
p303
aS'MEC-1'
p304
aS'BICR 6'
p305
aS'ZR-75-30'
p306
aS'G-292, clone A141B1'
p307
aS'HCC70'
p308
aS'MPP 89'
p309
aS'GMS-10'
p310
aS'HL-60'
p311
aS'HCC1569'
p312
aS'OPM-2'
p313
aS'CAL-33'
p314
aS'EN'
p315
aS'KYSE-270'
p316
aS'PE/CA-PJ34 (clone C12)'
p317
aS'SNU-626'
p318
aS'MDA-MB-436'
p319
aS'ChaGo-K-1'
p320
aS'CAS-1'
p321
aS'RT4'
p322
aS'KU-19-19'
p323
aS'PLC/PRF/5'
p324
aS'GCT'
p325
aS'NCI-H1355'
p326
aS'KNS-81'
p327
aS'T.T'
p328
aS'TEN'
p329
aS'NCO2'
p330
aS'LOX IMVI'
p331
aS'DK-MG'
p332
aS'SNU-C4'
p333
aS'SNU-C5'
p334
aS'MDST8'
p335
aS'Hs 944.T'
p336
aS'HDQ-P1'
p337
aS'NCI-H1915'
p338
aS'NCI-H522'
p339
aS'NCI-H524'
p340
aS'NCI-H526'
p341
aS'NCI-H1693'
p342
aS'NCI-H1694'
p343
aS'SNU-1197'
p344
aS'HSC-4'
p345
aS'HEL 92.1.7'
p346
aS'MOR/CPR'
p347
aS'HSC-2'
p348
aS'HSC-3'
p349
aS'CMK'
p350
aS'NCI-H2444'
p351
aS'SW948'
p352
aS'NCI-H841'
p353
aS'DU 145'
p354
aS'SW579'
p355
aS'SNU-620'
p356
aS'TE 441.T'
p357
aS'Hs 578T'
p358
aS'HEC-59'
p359
aS'Hs 821.T'
p360
aS'HuG1-N'
p361
aS'GA-10'
p362
aS'IGROV1'
p363
aS'NMC-G1'
p364
aS'SEM'
p365
aS'DBTRG-05MG'
p366
aS'Hep G2'
p367
aS'HCC202'
p368
aS'SK-CO-1'
p369
aS'P31/FUJ'
p370
aS'SNU-216'
p371
aS'SNU-213'
p372
aS'T1-73'
p373
aS'Set-2'
p374
aS'NCI-H322'
p375
aS'HCC-1359'
p376
aS'Detroit 562'
p377
aS'HCC-44'
p378
aS'TE-6'
p379
aS'TE-4'
p380
aS'SW1116'
p381
aS'OE19'
p382
aS'TE-1'
p383
aS'Hs 934.T'
p384
aS'Hs 739.T'
p385
aS'SW620'
p386
aS'NCI-H1435'
p387
aS'JHH-2'
p388
aS'TE-8'
p389
aS'TE-9'
p390
aS'MOLM-16'
p391
aS'Hs 819.T'
p392
aS'MOLM-13'
p393
aS'JURKAT'
p394
aS'Malme-3M'
p395
aS'KARPAS-299'
p396
aS'SNU-840'
p397
aS'KMRC-1'
p398
aS'KMRC-2'
p399
aS'A549'
p400
aS'SBC-5'
p401
aS'Hs 839.T'
p402
aS'JJN-3'
p403
aS'KASUMI-1'
p404
aS'SNU-449'
p405
aS'COR-L24'
p406
aS'KASUMI-2'
p407
aS'DB'
p408
aS'COR-L23'
p409
aS'CAL-12T'
p410
aS'OAW42'
p411
aS'MEG-01'
p412
aS'769-P'
p413
aS'Hs 618.T'
p414
aS'COV362'
p415
aS'RERF-GC-1B'
p416
aS'RS4;11'
p417
aS'QGP-1'
p418
aS'ESS-1'
p419
aS'SU-DHL-10'
p420
aS'647-V'
p421
aS'RH-18'
p422
aS'BCP-1'
p423
aS'T98G'
p424
aS'Hs 863.T'
p425
aS'A2058'
p426
aS'COR-L311'
p427
aS'THP-1'
p428
aS'OV-90'
p429
aS'NCI-H2023'
p430
aS'TYK-nu'
p431
aS'TOV-21G'
p432
aS'NCI-H2029'
p433
aS'CAL-62'
p434
aS'EJM'
p435
aS'HT-29'
p436
aS'A101D'
p437
aS'ONS-76'
p438
aS'Hs 600.T'
p439
aS'LUDLU-1'
p440
aS'KMM-1'
p441
aS'L-363'
p442
aS'FaDu'
p443
aS'RL'
p444
aS'NCI-H1436'
p445
aS'NCI-H1437'
p446
aS'CAL-120'
p447
aS'JIMT-1'
p448
aS'Li-7'
p449
aS'UACC-62'
p450
aS'PK-45H'
p451
aS'D283 Med'
p452
aS'HCC-1171'
p453
aS'HCT-15'
p454
aS'FU97'
p455
aS'COV644'
p456
aS'KURAMOCHI'
p457
aS'SK-MES-1'
p458
aS'VMRC-RCZ'
p459
aS'SUP-T1'
p460
aS'AML-193'
p461
aS'NCI-H446'
p462
aS'OCI-AML5'
p463
aS'OCI-AML2'
p464
aS'KNS-62'
p465
aS'KNS-60'
p466
aS'HUP-T3'
p467
aS'KCL-22'
p468
aS'HUP-T4'
p469
aS'OCI-LY-19'
p470
aS'Hs 940.T'
p471
aS'MDA-MB-468'
p472
aS'B-CPAP'
p473
aS'SNU-668'
p474
aS'WM-793'
p475
aS'FTC-133'
p476
aS'MHH-CALL-4'
p477
aS'NCI-H2110'
p478
aS'697'
p479
aS'NALM-19'
p480
aS'MHH-CALL-3'
p481
aS'SK-N-FI'
p482
aS'SW 1088'
p483
aS'MHH-CALL-2'
p484
aS'MHH-ES-1'
p485
aS'NCI-H1092'
p486
aS'BL-41'
p487
aS'HOP-62'
p488
aS'COLO-800'
p489
aS'ECC10'
p490
aS'BV-173'
p491
aS'ECC12'
p492
aS'NCI-H209'
p493
aS'U-118 MG'
p494
aS'Hs 281.T'
p495
aS'Hs 895.T'
p496
aS'NCI-H1869'
p497
aS'Hs 255.T'
p498
aS'SNU-1066'
p499
aS'TE 159.T'
p500
aS'K029AX'
p501
aS'huH-1'
p502
aS'COLO 668'
p503
aS'SW403'
p504
aS'CCK-81'
p505
aS'Hs 683'
p506
aS'P12-ICHIKAWA'
p507
aS'DMS 114'
p508
aS'LC-1F'
p509
aS'JHUEM-3'
p510
aS'C2BBe1'
p511
aS'SF268'
p512
aS'SNU-719'
p513
aS'NCI-H838'
p514
aS'NCI-H684'
p515
aS'SK-N-MC'
p516
aS'A-204'
p517
aS'Hs 737.T'
p518
aS'EFE-184'
p519
aS'HEC-6'
p520
aS'SU-DHL-4'
p521
aS'SNU-245'
p522
aS'MG-63'
p523
aS'SNU-324'
p524
aS'BICR 31'
p525
aS'CHP-126'
p526
aS'Ki-JK'
p527
aS'SK-MEL-30'
p528
aS'SK-MEL-31'
p529
aS'KYSE-140'
p530
aS'HCC-33'
p531
aS'LK-2'
p532
aS'NCI-H661'
p533
aS'NCI-H660'
p534
aS'BT-20'
p535
aS'Hs 840.T'
p536
aS'TM-31'
p537
aS'NCI-H196'
p538
aS'KG-1'
p539
aS'SK-MEL-1'
p540
aS'NCI-H2066'
p541
aS'SK-MEL-3'
p542
aS'HMCB'
p543
aS'HuT 102'
p544
aS'Hs 616.T'
p545
aS'OVMANA'
p546
aS'EHEB'
p547
aS'A3/KAW'
p548
aS'BC-3C'
p549
aS'Daudi'
p550
aS'NAMALWA'
p551
aS'OVSAHO'
p552
aS'MDA-MB-175-VII'
p553
aS'ACC-MESO-1'
p554
aS'SU-DHL-5'
p555
aS'SU-DHL-6'
p556
aS'SU-DHL-1'
p557
aS'HCC1500'
p558
aS'HPB-ALL'
p559
aS'HuT 78'
p560
aS'SNU-182'
p561
aS'SU-DHL-8'
p562
aS'Hs 229.T'
p563
aS'COLO 201'
p564
aS'MHH-NB-11'
p565
aS'SNU-1040'
p566
aS'SW 1353'
p567
aS'SW 900'
p568
aS'HCC-78'
p569
aS'NCI-H1048'
p570
aS'TCCSUP'
p571
aS'KHM-1B'
p572
aS'PE/CA-PJ15'
p573
aS'MOLP-8'
p574
aS'LP-1'
p575
aS'RH-41'
p576
aS'TF-1'
p577
aS'Hs 172.T'
p578
aS'MOLP-2'
p579
aS'SF126'
p580
aS'KOPN-8'
p581
aS'DMS 53'
p582
aS'KMRC-3'
p583
aS'GRANTA-519'
p584
aS'WM-115'
p585
aS'OVCAR-8'
p586
aS'OVTOKO'
p587
aS'SNU-387'
p588
aS'NB-1'
p589
aS'OVCAR-4'
p590
aS'HARA'
p591
aS'NB-4'
p592
aS'TE-14'
p593
aS'SUP-B15'
p594
aS'SNU-503'
p595
aS'NCI-H1299'
p596
aS'HLF-a'
p597
aS'NCI-H2405'
p598
aS'HuCCT1'
p599
aS'Panc 04.03'
p600
aS'RD'
p601
aS'IA-LM'
p602
aS'WM1799'
p603
aS'TE-10'
p604
aS'U266B1'
p605
aS'HCC-1438'
p606
aS'CI-1'
p607
aS'NCI-H28'
p608
aS'LS513'
p609
aS'PC-14'
p610
aS'UO-31'
p611
aS'TALL-1'
p612
aS'SUP-T11'
p613
aS'SH-4'
p614
aS'1034'
p615
aS'NCI-H23'
p616
aS'RERF-LC-KJ'
p617
aS'WM-88'
p618
aS'SCaBER'
p619
aS'U-87 MG'
p620
aS'NCI-H1703'
p621
aS'DMS 153'
p622
aS'HEL'
p623
aS'MDA-MB-453'
p624
aS'LCLC-97TM1'
p625
aS'LU65'
p626
aS'Caki-1'
p627
aS'Caki-2'
p628
aS'KPL-1'
p629
aS'RPMI-7951'
p630
aS'MOLT-3'
p631
aS'DMS 273'
p632
aS'EOL-1'
p633
aS'NCI-H1341'
p634
aS'SK-MEL-5'
p635
aS'A-498'
p636
aS'CADO-ES1'
p637
aS'NCI-H1618'
p638
aS'RERF-LC-MS'
p639
aS'PSN1'
p640
aS'NCI-H1838'
p641
aS'KS-1'
p642
aS'YKG1'
p643
aS'LN-229'
p644
aS'IGR-1'
p645
aS'SNU-201'
p646
aS'KP-2'
p647
aS'KP-3'
p648
aS'5637'
p649
aS'OVK18'
p650
aS'EKVX'
p651
aS'HCC1806'
p652
aS'EB1'
p653
aS'GP2d'
p654
aS'MJ'
p655
aS'Panc 02.13'
p656
aS'HEC-50B'
p657
aS'BICR 18'
p658
aS'HCC-1588'
p659
aS'BICR 16'
p660
aS'OE21'
p661
aS'LXF-289'
p662
aS'SNU-878'
p663
aS'ABC-1'
p664
aS'T3M-10'
p665
aS'HCC827'
p666
aS'NCI-H226'
p667
aS'NCI-H747'
p668
aS'CAL-85-1'
p669
aS'IPC-298'
p670
aS'NUGC-3'
p671
aS'SU.86.86'
p672
aS'SNU-478'
p673
aS'PK-1'
p674
aS'SNU-475'
p675
aS'Hs 936.T'
p676
aS'HCC1428'
p677
aS'SF-295'
p678
aS'23132/87'
p679
aS'ME-1'
p680
aS'NCI-H460'
p681
aS'CL-34'
p682
aS'COV318'
p683
aS'WM-266-4'
p684
aS'SW 780'
p685
aS'CAL-54'
p686
aS'Hs 606.T'
p687
aS'CAL-51'
p688
aS'Mino'
p689
aS'Caov-3'
p690
aS'HCC38'
p691
aS'Caov-4'
p692
aS'KE-97'
p693
aS'NCI-H2052'
p694
aS'Hey-A8'
p695
aS'GSU'
p696
aS'HT-1080'
p697
aS'NALM-6'
p698
aS'SK-LU-1'
p699
aS'NALM-1'
p700
aS'SK-OV-3'
p701
aS'Hs 939.T'
p702
aS'NH-6'
p703
aS'Hs 834.T'
p704
aS'MM1-S'
p705
aS'HCC-2108'
p706
aS'A4/Fuk'
p707
aS'KYSE-70'
p708
aS'ZR-75-1'
p709
aS'PE/CA-PJ49'
p710
aS'NCI-H1155'
p711
aS'KARPAS-620'
p712
aS'NCI-H69'
p713
aS'MOLM-6'
p714
aS'SCLC-21H'
p715
aS'KMS-11'
p716
aS'LS411N'
p717
aS'ML-1'
p718
aS'HCC2935'
p719
aS'IM95'
p720
aS'NCI-H1781'
p721
aS'RL95-2'
p722
aS'639-V'
p723
aS'EFM-19'
p724
aS'NUGC-4'
p725
aS'COLO-320'
p726
aS'JM1'
p727
aS'Calu-6'
p728
aS'MDA-MB-415'
p729
aS'TUHR4TKB'
p730
aS'Calu-1'
p731
aS'Calu-3'
p732
aS'SNU-81'
p733
aS'AsPC-1'
p734
aS'KE-37'
p735
aS'NUGC-2'
p736
aS'Hs 695T'
p737
aS'SK-MM-2'
p738
aS'LMSU'
p739
aS'Hs 742.T'
p740
aS'NCI-H1650'
p741
aS'NCI-H1651'
p742
aS'BFTC-909'
p743
aS'KYSE-510'
p744
aS'HuH-7'
p745
aS'HuH-6'
p746
aS'KYSE-450'
p747
aS'YH-13'
p748
aS'BFTC-905'
p749
aS'COR-L105'
p750
aS'BL-70'
p751
aS'NCI-H1876'
p752
aS'JVM-2'
p753
aS'SNU-1079'
p754
aS'SW 1271'
p755
aS'KE-39'
p756
aS'NCI-H1975'
p757
aS'SNU-119'
p758
aS'SNU-1077'
p759
aS'SNU-1076'
p760
aS'HT'
p761
aS'HH'
p762
aS'DEL'
p763
aS'BICR 56'
p764
aS'MEL-HO'
p765
aS'RPMI 8226'
p766
aS'Panc 03.27'
p767
aS'KU812'
p768
aS'TC-71'
p769
aS'MDA-MB-157'
p770
aS'NCI-H1573'
p771
aS'CCF-STTG1'
p772
aS'Ishikawa (Heraklio) 02 ER-'
p773
aS'Hs 294T'
p774
aS'YD-10B'
p775
aS'NCI-H2172'
p776
aS'NCI-H2170'
p777
aS'NCI-H2171'
p778
aS'MKN-45'
p779
aS'SK-LMS-1'
p780
aS'EFO-21'
p781
aS'RD-ES'
p782
aS'SNU-899'
p783
aS'CJM'
p784
aS'SW 1573'
p785
aS'UACC-257'
p786
aS'COLO-783'
p787
aS'HPAF-II'
p788
aS'RERF-LC-Ad2'
p789
aS'RERF-LC-Ad1'
p790
aS'22Rv1'
p791
aS'NCI-H716'
p792
aS'CW-2'
p793
aS'Hs 706.T'
p794
aS'HCC1937'
p795
aS'JHUEM-1'
p796
aS'T24'
p797
aS'NCI-H650'
p798
aS'A-375'
p799
aS'SK-N-BE(2)'
p800
aS'42-MG-BA'
p801
aS'Panc 10.05'
p802
aS'KYO-1'
p803
aS'SNU-1'
p804
aS'NCI-H3255'
p805
aS'H4'
p806
aS'DM-3'
p807
aS'U-937'
p808
aS'MDA-MB-134-VI'
p809
aS'SNU-61'
p810
aS'HCC2157'
p811
aS'SNB75'
p812
aS'NCI-H2126'
p813
aS'SNU-1272'
p814
aS'SKM-1'
p815
aS'JVM-3'
p816
aS'PA-TU-8988S'
p817
aS'HEC-1-B'
p818
aS'SNU-423'
p819
aS'HEC-1-A'
p820
aS'YAPC'
p821
aS'GAMG'
p822
aS'J82'
p823
aS'COLO-679'
p824
aS'COLO-678'
p825
aS'SNU-349'
p826
aS'Hs 746T'
p827
aS'DAN-G'
p828
aS'OAW28'
p829
aS'SW1463'
p830
aS'PA-TU-8902'
p831
aS'YD-15'
p832
aS'Hs 870.T'
p833
aS'Hs 343.T'
p834
aS'Hs 729'
p835
aS'COLO 741'
p836
aS'RCH-ACV'
p837
aS'MKN1'
p838
aS'HuNS1'
p839
aS'MKN7'
p840
aS'BT-483'
p841
aS'KP-N-RT-BM-1'
p842
aS'KYM-1'
p843
aS'NCI-H2009'
p844
aS'EFM-192A'
p845
aS'LS 180'
p846
aS'VM-CUB1'
p847
aS'COR-L95'
p848
aS'JeKo-1'
p849
aS'NCI-H810'
p850
aS'KMS-12-BM'
p851
aS'L3.3'
p852
aS'SW48'
p853
aS'NCI-H82'
p854
aS'ACHN'
p855
aS'OCI-M1'
p856
aS'HD-MY-Z'
p857
aS'TGBC11TKB'
p858
aS'PE/CA-PJ41 (clone D2)'
p859
aS'KP-N-SI9s'
p860
aS'ES-2'
p861
aS'OS-RC-2'
p862
aS'PL-21'
p863
aS'MeWo'
p864
aS'NCI-H1755'
p865
aS'SNU-C1'
p866
aS'CAL-148'
p867
aS'Hs 766T'
p868
aS'KM-H2'
p869
aS'KMS-21BM'
p870
aS'NCI-H1184'
p871
aS'KYSE-410'
p872
aS'ONCO-DG-1'
p873
aS'RT-112'
p874
aS'Hs 852.T'
p875
aS'F-36P'
p876
aS'BICR 22'
p877
aS'SNU-1033'
p878
aS'KNS-42'
p879
aS'KG-1-C'
p880
aS'NCI-H508'
p881
aS'JHH-4'
p882
aS'SNU-761'
p883
aS'NCI-H2342'
p884
aS'A-253'
p885
aS'SNU-407'
p886
aS'A-704'
p887
aS'LN-18'
p888
aS'KM12'
p889
aS'TT'
p890
aS'HCC4006'
p891
aS'SNU-601'
p892
aS'JHOC-5'
p893
aS'CAMA-1'
p894
aS'NCI-H1623'
p895
aS'MSTO-211H'
p896
aS'SNU-1105'
p897
aS'EM-2'
p898
aS'KYSE-520'
p899
aS'RKN'
p900
aS'RKO'
p901
aS'NCI-H1339'
p902
aS'M059K'
p903
aS'KLE'
p904
aS'AN3 CA'
p905
aS'Hs 688(A).T'
p906
aS'BDCM'
p907
aS'Loucy'
p908
aS'NCI-H1395'
p909
aS'D341 Med'
p910
aS'KYSE-30'
p911
aS'NCI-H2291'
p912
aS'SK-HEP-1'
p913
aS'HOS'
p914
aS'OE33'
p915
aS'NCI-H596'
p916
aS'MDA-MB-361'
p917
aS'HT115'
p918
aS'YD-38'
p919
aS'NCI-H2228'
p920
aS'SHP-77'
p921
aS'NCI-H1930'
p922
aS'DND-41'
p923
aS'NCI-H2347'
p924
aS'PC-3'
p925
aS'TT2609-C02'
p926
aS'SNU-869'
p927
aS'VMRC-RCW'
p928
aS'NCI-H2227'
p929
aS'FU-OV-1'
p930
aS'BxPC-3'
p931
aS'MOLT-13'
p932
aS'A-673'
p933
a.